target datalayout = "e-m:e-p270:32:32-p271:32:32-p272:64:64-i64:64-i128:128-f80:128-n8:16:32:64-S128"
target triple = "x86_64-pc-linux-gnu"

%struct._quic_stream_state = type { i64, ptr, ptr }
%struct.quic_info_data = type { i32, i32, ptr, i16, i32, i32, i32, %struct.quic_ciphers, %struct.quic_ciphers, %struct.quic_ciphers, %struct.quic_ciphers, %struct.quic_ciphers, %struct.quic_pp_state, %struct.quic_pp_state, [3 x i64], [3 x i64], ptr, ptr, %struct.quic_cid_item, %struct.quic_cid_item, %struct.quic_cid, ptr, ptr, ptr, ptr, ptr, ptr, ptr, ptr, ptr, ptr }
%struct.quic_ciphers = type { %struct.quic_hp_cipher, %struct.quic_pp_cipher }
%struct.quic_hp_cipher = type { ptr }
%struct.quic_pp_cipher = type { ptr, [12 x i8] }
%struct.quic_pp_state = type { ptr, [2 x %struct.quic_pp_cipher], %struct.quic_hp_cipher, i64, i8 }
%struct.quic_cid_item = type { ptr, %struct.quic_cid }
%struct.quic_cid = type { i8, [20 x i8], [16 x i8], i8, i64, i64 }
%struct._packet_info = type { ptr, ptr, i32, i32, %struct.nstime_t, %struct.nstime_t, %struct.nstime_t, i8, ptr, ptr, ptr, ptr, %struct._address, %struct._address, %struct._address, %struct._address, %struct._address, %struct._address, i32, ptr, i8, [3 x i8], %struct.anon, i32, i32, i32, i32, ptr, i8, ptr, ptr, i16, i16, i32, i32, i16, i32, i32, ptr, ptr, ptr, i8, i8, i16, i16, i16, i32, i16, i16, ptr, ptr, ptr, ptr, ptr, i32, i32 }
%struct.nstime_t = type { i64, i32 }
%struct._address = type { i32, i32, ptr, ptr }
%struct.anon = type { i8, [3 x i8] }
%struct._frame_data = type <{ i32, i32, i32, i32, i32, [4 x i8], i64, ptr, ptr, ptr, i8, i16, [5 x i8], %struct.nstime_t, %struct.nstime_t, i32, i32 }>

@.str.374 = private unnamed_addr constant [29 x i8] c"%s:%u: failed assertion \22%s\22\00", align 1
@.str.375 = private unnamed_addr constant [30 x i8] c"epan/dissectors/packet-quic.c\00", align 1
@.str.376 = private unnamed_addr constant [8 x i8] c"streams\00", align 1
@.str.377 = private unnamed_addr constant [7 x i8] c"stream\00", align 1

; Function Attrs: null_pointer_is_valid sspstrong uwtable
define internal ptr @quic_get_stream_state(ptr noundef %0, ptr noundef %1, i1 noundef zeroext %2, i64 noundef %3) #0 {
  %5 = alloca ptr, align 8
  %6 = alloca ptr, align 8
  %7 = alloca ptr, align 8
  %8 = alloca i8, align 1
  %9 = alloca i64, align 8
  %10 = alloca ptr, align 8
  %11 = alloca ptr, align 8
  %12 = alloca ptr, align 8
  %13 = alloca i32, align 4
  store ptr %0, ptr %6, align 8
  store ptr %1, ptr %7, align 8
  %14 = zext i1 %2 to i8
  store i8 %14, ptr %8, align 1
  store i64 %3, ptr %9, align 8
  call void @llvm.lifetime.start.p0(i64 8, ptr %10) #19
  %15 = load i8, ptr %8, align 1, !range !6, !noundef !7
  %16 = trunc i8 %15 to i1
  br i1 %16, label %17, label %20

17:                                               ; preds = %4
  %18 = load ptr, ptr %7, align 8
  %19 = getelementptr inbounds nuw %struct.quic_info_data, ptr %18, i32 0, i32 24
  br label %23

20:                                               ; preds = %4
  %21 = load ptr, ptr %7, align 8
  %22 = getelementptr inbounds nuw %struct.quic_info_data, ptr %21, i32 0, i32 23
  br label %23

23:                                               ; preds = %20, %17
  %24 = phi ptr [ %19, %17 ], [ %22, %20 ]
  store ptr %24, ptr %10, align 8
  call void @llvm.lifetime.start.p0(i64 8, ptr %11) #19
  %25 = load ptr, ptr %10, align 8
  %26 = load ptr, ptr %25, align 8
  store ptr %26, ptr %11, align 8
  call void @llvm.lifetime.start.p0(i64 8, ptr %12) #19
  store ptr null, ptr %12, align 8
  %27 = load ptr, ptr %6, align 8
  %28 = getelementptr inbounds nuw %struct._packet_info, ptr %27, i32 0, i32 8
  %29 = load ptr, ptr %28, align 8
  %30 = getelementptr inbounds nuw %struct._frame_data, ptr %29, i32 0, i32 11
  %31 = load i16, ptr %30, align 1
  %32 = lshr i16 %31, 3
  %33 = and i16 %32, 1
  %34 = zext i16 %33 to i32
  %35 = icmp ne i32 %34, 0
  br i1 %35, label %36, label %52

36:                                               ; preds = %23
  %37 = load ptr, ptr %11, align 8
  %38 = icmp ne ptr %37, null
  br i1 %38, label %39, label %40

39:                                               ; preds = %36
  br label %42

40:                                               ; preds = %36
  call void (ptr, ...) @proto_report_dissector_bug(ptr noundef @.str.374, ptr noundef @.str.375, i32 noundef 1551, ptr noundef @.str.376) #20
  unreachable

41:                                               ; No predecessors!
  br label %42

42:                                               ; preds = %41, %39
  %43 = load ptr, ptr %11, align 8
  %44 = call ptr @wmem_map_lookup(ptr noundef %43, ptr noundef %9)
  store ptr %44, ptr %12, align 8
  %45 = load ptr, ptr %12, align 8
  %46 = icmp ne ptr %45, null
  br i1 %46, label %47, label %48

47:                                               ; preds = %42
  br label %50

48:                                               ; preds = %42
  call void (ptr, ...) @proto_report_dissector_bug(ptr noundef @.str.374, ptr noundef @.str.375, i32 noundef 1553, ptr noundef @.str.377) #20
  unreachable

49:                                               ; No predecessors!
  br label %50

50:                                               ; preds = %49, %47
  %51 = load ptr, ptr %12, align 8
  store ptr %51, ptr %5, align 8
  store i32 1, ptr %13, align 4
  br label %83

52:                                               ; preds = %23
  %53 = load ptr, ptr %11, align 8
  %54 = icmp ne ptr %53, null
  br i1 %54, label %60, label %55

55:                                               ; preds = %52
  %56 = call ptr @wmem_file_scope()
  %57 = call noalias ptr @wmem_map_new(ptr noundef %56, ptr noundef @wmem_int64_hash, ptr noundef @g_int64_equal)
  store ptr %57, ptr %11, align 8
  %58 = load ptr, ptr %11, align 8
  %59 = load ptr, ptr %10, align 8
  store ptr %58, ptr %59, align 8
  br label %63

60:                                               ; preds = %52
  %61 = load ptr, ptr %11, align 8
  %62 = call ptr @wmem_map_lookup(ptr noundef %61, ptr noundef %9)
  store ptr %62, ptr %12, align 8
  br label %63

63:                                               ; preds = %60, %55
  %64 = load ptr, ptr %12, align 8
  %65 = icmp ne ptr %64, null
  br i1 %65, label %81, label %66

66:                                               ; preds = %63
  %67 = call ptr @wmem_file_scope()
  %68 = call noalias ptr @wmem_alloc0(ptr noundef %67, i64 noundef 24) #21
  store ptr %68, ptr %12, align 8
  %69 = load i64, ptr %9, align 8
  %70 = load ptr, ptr %12, align 8
  %71 = getelementptr inbounds nuw %struct._quic_stream_state, ptr %70, i32 0, i32 0
  store i64 %69, ptr %71, align 8
  %72 = call ptr @wmem_file_scope()
  %73 = call noalias ptr @wmem_tree_new(ptr noundef %72)
  %74 = load ptr, ptr %12, align 8
  %75 = getelementptr inbounds nuw %struct._quic_stream_state, ptr %74, i32 0, i32 1
  store ptr %73, ptr %75, align 8
  %76 = load ptr, ptr %11, align 8
  %77 = load ptr, ptr %12, align 8
  %78 = getelementptr inbounds nuw %struct._quic_stream_state, ptr %77, i32 0, i32 0
  %79 = load ptr, ptr %12, align 8
  %80 = call ptr @wmem_map_insert(ptr noundef %76, ptr noundef %78, ptr noundef %79)
  br label %81

81:                                               ; preds = %66, %63
  %82 = load ptr, ptr %12, align 8
  store ptr %82, ptr %5, align 8
  store i32 1, ptr %13, align 4
  br label %83

83:                                               ; preds = %81, %50
  call void @llvm.lifetime.end.p0(i64 8, ptr %12) #19
  call void @llvm.lifetime.end.p0(i64 8, ptr %11) #19
  call void @llvm.lifetime.end.p0(i64 8, ptr %10) #19
  %84 = load ptr, ptr %5, align 8
  ret ptr %84
}