; Function Attrs: null_pointer_is_valid sspstrong uwtable
define internal fastcc ptr @quic_get_stream_state(i16 %.80.val.57.val, ptr noundef captures(none) %0, i1 noundef zeroext %1, i64 noundef %2) unnamed_addr #0 {
  %4 = alloca i64, align 8
  store i64 %2, ptr %4, align 8
  %.v = select i1 %1, i64 624, i64 616
  %5 = getelementptr inbounds nuw i8, ptr %0, i64 %.v
  %6 = load ptr, ptr %5, align 8
  %7 = and i16 %.80.val.57.val, 8
  %.not = icmp eq i16 %7, 0
  %.not25 = icmp eq ptr %6, null
  br i1 %.not, label %13, label %8

8:                                                ; preds = %3
  br i1 %.not25, label %9, label %10

9:                                                ; preds = %8
  tail call void (ptr, ...) @proto_report_dissector_bug(ptr noundef nonnull @.str.374, ptr noundef nonnull @.str.375, i32 noundef 1551, ptr noundef nonnull @.str.376) #16
  unreachable

10:                                               ; preds = %8
  %11 = call ptr @wmem_map_lookup(ptr noundef nonnull %6, ptr noundef nonnull %4)
  %.not28 = icmp eq ptr %11, null
  br i1 %.not28, label %12, label %26

12:                                               ; preds = %10
  call void (ptr, ...) @proto_report_dissector_bug(ptr noundef nonnull @.str.374, ptr noundef nonnull @.str.375, i32 noundef 1553, ptr noundef nonnull @.str.377) #16
  unreachable

13:                                               ; preds = %3
  br i1 %.not25, label %.thread, label %16

.thread:                                          ; preds = %13
  %14 = tail call ptr @wmem_file_scope()
  %15 = tail call noalias ptr @wmem_map_new(ptr noundef %14, ptr noundef nonnull @wmem_int64_hash, ptr noundef nonnull @g_int64_equal)
  store ptr %15, ptr %5, align 8
  br label %18

16:                                               ; preds = %13
  %17 = call ptr @wmem_map_lookup(ptr noundef nonnull %6, ptr noundef nonnull %4)
  %.not26 = icmp eq ptr %17, null
  br i1 %.not26, label %18, label %26

18:                                               ; preds = %.thread, %16
  %.0204 = phi ptr [ %15, %.thread ], [ %6, %16 ]
  %19 = call ptr @wmem_file_scope()
  %20 = call noalias dereferenceable_or_null(24) ptr @wmem_alloc0(ptr noundef %19, i64 noundef 24) #17
  %21 = load i64, ptr %4, align 8
  store i64 %21, ptr %20, align 8
  %22 = call ptr @wmem_file_scope()
  %23 = call noalias ptr @wmem_tree_new(ptr noundef %22)
  %24 = getelementptr inbounds nuw i8, ptr %20, i64 8
  store ptr %23, ptr %24, align 8
  %25 = call ptr @wmem_map_insert(ptr noundef %.0204, ptr noundef %20, ptr noundef %20)
  br label %26

26:                                               ; preds = %16, %18, %10
  %.021 = phi ptr [ %11, %10 ], [ %17, %16 ], [ %20, %18 ]
  ret ptr %.021
}